target datalayout = "e-m:e-p270:32:32-p271:32:32-p272:64:64-i64:64-i128:128-f80:128-n8:16:32:64-S128"
target triple = "x86_64-pc-linux-gnu"

%struct.DH_PKEY_CTX = type { i32, i32, i32, i32, i32, ptr, i32, [2 x i32], i8, ptr, ptr, ptr, i64, i64 }
%struct.evp_pkey_ctx_st = type { i32, ptr, ptr, ptr, ptr, %union.anon, %struct.anon.4, ptr, ptr, ptr, i32, i32, ptr, ptr, ptr, ptr, ptr, i8, ptr }
%union.anon = type { %struct.anon.0 }
%struct.anon.0 = type { ptr, ptr }
%struct.anon.4 = type { ptr, ptr, i64, i8 }

@.str = private unnamed_addr constant [32 x i8] c"../openssl/crypto/dh/dh_pmeth.c\00", align 1

; Function Attrs: nounwind uwtable
define internal i32 @pkey_dh_init(ptr noundef %0) #0 {
  %2 = alloca i32, align 4
  %3 = alloca ptr, align 8
  %4 = alloca ptr, align 8
  %5 = alloca i32, align 4
  store ptr %0, ptr %3, align 8, !tbaa !3
  call void @llvm.lifetime.start.p0(i64 8, ptr %4) #6
  %6 = call noalias ptr @CRYPTO_zalloc(i64 noundef 88, ptr noundef @.str, i32 noundef 58)
  store ptr %6, ptr %4, align 8, !tbaa !8
  %7 = icmp eq ptr %6, null
  br i1 %7, label %8, label %9

8:                                                ; preds = %1
  store i32 0, ptr %2, align 4
  store i32 1, ptr %5, align 4
  br label %28

9:                                                ; preds = %1
  %10 = load ptr, ptr %4, align 8, !tbaa !8
  %11 = getelementptr inbounds nuw %struct.DH_PKEY_CTX, ptr %10, i32 0, i32 0
  store i32 2048, ptr %11, align 8, !tbaa !9
  %12 = load ptr, ptr %4, align 8, !tbaa !8
  %13 = getelementptr inbounds nuw %struct.DH_PKEY_CTX, ptr %12, i32 0, i32 3
  store i32 -1, ptr %13, align 4, !tbaa !16
  %14 = load ptr, ptr %4, align 8, !tbaa !8
  %15 = getelementptr inbounds nuw %struct.DH_PKEY_CTX, ptr %14, i32 0, i32 1
  store i32 2, ptr %15, align 4, !tbaa !17
  %16 = load ptr, ptr %4, align 8, !tbaa !8
  %17 = getelementptr inbounds nuw %struct.DH_PKEY_CTX, ptr %16, i32 0, i32 8
  store i8 1, ptr %17, align 4, !tbaa !18
  %18 = load ptr, ptr %4, align 8, !tbaa !8
  %19 = load ptr, ptr %3, align 8, !tbaa !3
  %20 = getelementptr inbounds nuw %struct.evp_pkey_ctx_st, ptr %19, i32 0, i32 16
  store ptr %18, ptr %20, align 8, !tbaa !19
  %21 = load ptr, ptr %4, align 8, !tbaa !8
  %22 = getelementptr inbounds nuw %struct.DH_PKEY_CTX, ptr %21, i32 0, i32 7
  %23 = getelementptr inbounds [2 x i32], ptr %22, i64 0, i64 0
  %24 = load ptr, ptr %3, align 8, !tbaa !3
  %25 = getelementptr inbounds nuw %struct.evp_pkey_ctx_st, ptr %24, i32 0, i32 9
  store ptr %23, ptr %25, align 8, !tbaa !29
  %26 = load ptr, ptr %3, align 8, !tbaa !3
  %27 = getelementptr inbounds nuw %struct.evp_pkey_ctx_st, ptr %26, i32 0, i32 10
  store i32 2, ptr %27, align 8, !tbaa !30
  store i32 1, ptr %2, align 4
  store i32 1, ptr %5, align 4
  br label %28

28:                                               ; preds = %9, %8
  call void @llvm.lifetime.end.p0(i64 8, ptr %4) #6
  %29 = load i32, ptr %2, align 4
  ret i32 %29
}

; Function Attrs: nounwind uwtable
define internal i32 @pkey_dh_copy(ptr noundef %0, ptr noundef %1) #0 {
  %3 = alloca i32, align 4
  %4 = alloca ptr, align 8
  %5 = alloca ptr, align 8
  %6 = alloca ptr, align 8
  %7 = alloca ptr, align 8
  %8 = alloca i32, align 4
  store ptr %0, ptr %4, align 8, !tbaa !3
  store ptr %1, ptr %5, align 8, !tbaa !3
  call void @llvm.lifetime.start.p0(i64 8, ptr %6) #6
  call void @llvm.lifetime.start.p0(i64 8, ptr %7) #6
  %9 = load ptr, ptr %4, align 8, !tbaa !3
  %10 = call i32 @pkey_dh_init(ptr noundef %9)
  %11 = icmp ne i32 %10, 0
  br i1 %11, label %13, label %12

12:                                               ; preds = %2
  store i32 0, ptr %3, align 4
  store i32 1, ptr %8, align 4
  br label %108

13:                                               ; preds = %2
  %14 = load ptr, ptr %5, align 8, !tbaa !3
  %15 = getelementptr inbounds nuw %struct.evp_pkey_ctx_st, ptr %14, i32 0, i32 16
  %16 = load ptr, ptr %15, align 8, !tbaa !19
  store ptr %16, ptr %7, align 8, !tbaa !8
  %17 = load ptr, ptr %4, align 8, !tbaa !3
  %18 = getelementptr inbounds nuw %struct.evp_pkey_ctx_st, ptr %17, i32 0, i32 16
  %19 = load ptr, ptr %18, align 8, !tbaa !19
  store ptr %19, ptr %6, align 8, !tbaa !8
  %20 = load ptr, ptr %7, align 8, !tbaa !8
  %21 = getelementptr inbounds nuw %struct.DH_PKEY_CTX, ptr %20, i32 0, i32 0
  %22 = load i32, ptr %21, align 8, !tbaa !9
  %23 = load ptr, ptr %6, align 8, !tbaa !8
  %24 = getelementptr inbounds nuw %struct.DH_PKEY_CTX, ptr %23, i32 0, i32 0
  store i32 %22, ptr %24, align 8, !tbaa !9
  %25 = load ptr, ptr %7, align 8, !tbaa !8
  %26 = getelementptr inbounds nuw %struct.DH_PKEY_CTX, ptr %25, i32 0, i32 3
  %27 = load i32, ptr %26, align 4, !tbaa !16
  %28 = load ptr, ptr %6, align 8, !tbaa !8
  %29 = getelementptr inbounds nuw %struct.DH_PKEY_CTX, ptr %28, i32 0, i32 3
  store i32 %27, ptr %29, align 4, !tbaa !16
  %30 = load ptr, ptr %7, align 8, !tbaa !8
  %31 = getelementptr inbounds nuw %struct.DH_PKEY_CTX, ptr %30, i32 0, i32 1
  %32 = load i32, ptr %31, align 4, !tbaa !17
  %33 = load ptr, ptr %6, align 8, !tbaa !8
  %34 = getelementptr inbounds nuw %struct.DH_PKEY_CTX, ptr %33, i32 0, i32 1
  store i32 %32, ptr %34, align 4, !tbaa !17
  %35 = load ptr, ptr %7, align 8, !tbaa !8
  %36 = getelementptr inbounds nuw %struct.DH_PKEY_CTX, ptr %35, i32 0, i32 2
  %37 = load i32, ptr %36, align 8, !tbaa !31
  %38 = load ptr, ptr %6, align 8, !tbaa !8
  %39 = getelementptr inbounds nuw %struct.DH_PKEY_CTX, ptr %38, i32 0, i32 2
  store i32 %37, ptr %39, align 8, !tbaa !31
  %40 = load ptr, ptr %7, align 8, !tbaa !8
  %41 = getelementptr inbounds nuw %struct.DH_PKEY_CTX, ptr %40, i32 0, i32 4
  %42 = load i32, ptr %41, align 8, !tbaa !32
  %43 = load ptr, ptr %6, align 8, !tbaa !8
  %44 = getelementptr inbounds nuw %struct.DH_PKEY_CTX, ptr %43, i32 0, i32 4
  store i32 %42, ptr %44, align 8, !tbaa !32
  %45 = load ptr, ptr %7, align 8, !tbaa !8
  %46 = getelementptr inbounds nuw %struct.DH_PKEY_CTX, ptr %45, i32 0, i32 5
  %47 = load ptr, ptr %46, align 8, !tbaa !33
  %48 = load ptr, ptr %6, align 8, !tbaa !8
  %49 = getelementptr inbounds nuw %struct.DH_PKEY_CTX, ptr %48, i32 0, i32 5
  store ptr %47, ptr %49, align 8, !tbaa !33
  %50 = load ptr, ptr %7, align 8, !tbaa !8
  %51 = getelementptr inbounds nuw %struct.DH_PKEY_CTX, ptr %50, i32 0, i32 6
  %52 = load i32, ptr %51, align 8, !tbaa !34
  %53 = load ptr, ptr %6, align 8, !tbaa !8
  %54 = getelementptr inbounds nuw %struct.DH_PKEY_CTX, ptr %53, i32 0, i32 6
  store i32 %52, ptr %54, align 8, !tbaa !34
  %55 = load ptr, ptr %7, align 8, !tbaa !8
  %56 = getelementptr inbounds nuw %struct.DH_PKEY_CTX, ptr %55, i32 0, i32 8
  %57 = load i8, ptr %56, align 4, !tbaa !18
  %58 = load ptr, ptr %6, align 8, !tbaa !8
  %59 = getelementptr inbounds nuw %struct.DH_PKEY_CTX, ptr %58, i32 0, i32 8
  store i8 %57, ptr %59, align 4, !tbaa !18
  %60 = load ptr, ptr %7, align 8, !tbaa !8
  %61 = getelementptr inbounds nuw %struct.DH_PKEY_CTX, ptr %60, i32 0, i32 9
  %62 = load ptr, ptr %61, align 8, !tbaa !35
  %63 = call ptr @OBJ_dup(ptr noundef %62)
  %64 = load ptr, ptr %6, align 8, !tbaa !8
  %65 = getelementptr inbounds nuw %struct.DH_PKEY_CTX, ptr %64, i32 0, i32 9
  store ptr %63, ptr %65, align 8, !tbaa !35
  %66 = load ptr, ptr %6, align 8, !tbaa !8
  %67 = getelementptr inbounds nuw %struct.DH_PKEY_CTX, ptr %66, i32 0, i32 9
  %68 = load ptr, ptr %67, align 8, !tbaa !35
  %69 = icmp eq ptr %68, null
  br i1 %69, label %70, label %71

70:                                               ; preds = %13
  store i32 0, ptr %3, align 4
  store i32 1, ptr %8, align 4
  br label %108

71:                                               ; preds = %13
  %72 = load ptr, ptr %7, align 8, !tbaa !8
  %73 = getelementptr inbounds nuw %struct.DH_PKEY_CTX, ptr %72, i32 0, i32 10
  %74 = load ptr, ptr %73, align 8, !tbaa !36
  %75 = load ptr, ptr %6, align 8, !tbaa !8
  %76 = getelementptr inbounds nuw %struct.DH_PKEY_CTX, ptr %75, i32 0, i32 10
  store ptr %74, ptr %76, align 8, !tbaa !36
  %77 = load ptr, ptr %7, align 8, !tbaa !8
  %78 = getelementptr inbounds nuw %struct.DH_PKEY_CTX, ptr %77, i32 0, i32 11
  %79 = load ptr, ptr %78, align 8, !tbaa !37
  %80 = icmp ne ptr %79, null
  br i1 %80, label %81, label %102

81:                                               ; preds = %71
  %82 = load ptr, ptr %7, align 8, !tbaa !8
  %83 = getelementptr inbounds nuw %struct.DH_PKEY_CTX, ptr %82, i32 0, i32 11
  %84 = load ptr, ptr %83, align 8, !tbaa !37
  %85 = load ptr, ptr %7, align 8, !tbaa !8
  %86 = getelementptr inbounds nuw %struct.DH_PKEY_CTX, ptr %85, i32 0, i32 12
  %87 = load i64, ptr %86, align 8, !tbaa !38
  %88 = call noalias ptr @CRYPTO_memdup(ptr noundef %84, i64 noundef %87, ptr noundef @.str, i32 noundef 106)
  %89 = load ptr, ptr %6, align 8, !tbaa !8
  %90 = getelementptr inbounds nuw %struct.DH_PKEY_CTX, ptr %89, i32 0, i32 11
  store ptr %88, ptr %90, align 8, !tbaa !37
  %91 = load ptr, ptr %6, align 8, !tbaa !8
  %92 = getelementptr inbounds nuw %struct.DH_PKEY_CTX, ptr %91, i32 0, i32 11
  %93 = load ptr, ptr %92, align 8, !tbaa !37
  %94 = icmp eq ptr %93, null
  br i1 %94, label %95, label %96

95:                                               ; preds = %81
  store i32 0, ptr %3, align 4
  store i32 1, ptr %8, align 4
  br label %108

96:                                               ; preds = %81
  %97 = load ptr, ptr %7, align 8, !tbaa !8
  %98 = getelementptr inbounds nuw %struct.DH_PKEY_CTX, ptr %97, i32 0, i32 12
  %99 = load i64, ptr %98, align 8, !tbaa !38
  %100 = load ptr, ptr %6, align 8, !tbaa !8
  %101 = getelementptr inbounds nuw %struct.DH_PKEY_CTX, ptr %100, i32 0, i32 12
  store i64 %99, ptr %101, align 8, !tbaa !38
  br label %102

102:                                              ; preds = %96, %71
  %103 = load ptr, ptr %7, align 8, !tbaa !8
  %104 = getelementptr inbounds nuw %struct.DH_PKEY_CTX, ptr %103, i32 0, i32 13
  %105 = load i64, ptr %104, align 8, !tbaa !39
  %106 = load ptr, ptr %6, align 8, !tbaa !8
  %107 = getelementptr inbounds nuw %struct.DH_PKEY_CTX, ptr %106, i32 0, i32 13
  store i64 %105, ptr %107, align 8, !tbaa !39
  store i32 1, ptr %3, align 4
  store i32 1, ptr %8, align 4
  br label %108

108:                                              ; preds = %102, %95, %70, %12
  call void @llvm.lifetime.end.p0(i64 8, ptr %7) #6
  call void @llvm.lifetime.end.p0(i64 8, ptr %6) #6
  %109 = load i32, ptr %3, align 4
  ret i32 %109
}