; Function Attrs: nounwind uwtable
define internal range(i32 0, 2) i32 @pkey_dh_copy(ptr noundef writeonly captures(none) %0, ptr noundef readonly captures(none) %1) #1 {
  %3 = tail call noalias ptr @CRYPTO_zalloc(i64 noundef 88, ptr noundef nonnull @.str, i32 noundef 58) #6
  %4 = icmp eq ptr %3, null
  br i1 %4, label %pkey_dh_init.exit.thread, label %5

5:                                                ; preds = %2
  store i32 2048, ptr %3, align 8, !tbaa !3
  %6 = getelementptr inbounds nuw i8, ptr %3, i64 12
  store i32 -1, ptr %6, align 4, !tbaa !13
  %7 = getelementptr inbounds nuw i8, ptr %3, i64 4
  store i32 2, ptr %7, align 4, !tbaa !14
  %8 = getelementptr inbounds nuw i8, ptr %3, i64 44
  store i8 1, ptr %8, align 4, !tbaa !15
  %9 = getelementptr inbounds nuw i8, ptr %0, i64 152
  store ptr %3, ptr %9, align 8, !tbaa !16
  %10 = getelementptr inbounds nuw i8, ptr %3, i64 36
  %11 = getelementptr inbounds nuw i8, ptr %0, i64 104
  store ptr %10, ptr %11, align 8, !tbaa !26
  %12 = getelementptr inbounds nuw i8, ptr %0, i64 112
  store i32 2, ptr %12, align 8, !tbaa !27
  %13 = getelementptr inbounds nuw i8, ptr %1, i64 152
  %14 = load ptr, ptr %13, align 8, !tbaa !16
  %15 = load i32, ptr %14, align 8, !tbaa !3
  store i32 %15, ptr %3, align 8, !tbaa !3
  %16 = getelementptr inbounds nuw i8, ptr %14, i64 12
  %17 = load i32, ptr %16, align 4, !tbaa !13
  store i32 %17, ptr %6, align 4, !tbaa !13
  %18 = getelementptr inbounds nuw i8, ptr %14, i64 4
  %19 = load i32, ptr %18, align 4, !tbaa !14
  store i32 %19, ptr %7, align 4, !tbaa !14
  %20 = getelementptr inbounds nuw i8, ptr %14, i64 8
  %21 = load i32, ptr %20, align 8, !tbaa !28
  %22 = getelementptr inbounds nuw i8, ptr %3, i64 8
  store i32 %21, ptr %22, align 8, !tbaa !28
  %23 = getelementptr inbounds nuw i8, ptr %14, i64 16
  %24 = load i32, ptr %23, align 8, !tbaa !29
  %25 = getelementptr inbounds nuw i8, ptr %3, i64 16
  store i32 %24, ptr %25, align 8, !tbaa !29
  %26 = getelementptr inbounds nuw i8, ptr %14, i64 24
  %27 = load ptr, ptr %26, align 8, !tbaa !30
  %28 = getelementptr inbounds nuw i8, ptr %3, i64 24
  store ptr %27, ptr %28, align 8, !tbaa !30
  %29 = getelementptr inbounds nuw i8, ptr %14, i64 32
  %30 = load i32, ptr %29, align 8, !tbaa !31
  %31 = getelementptr inbounds nuw i8, ptr %3, i64 32
  store i32 %30, ptr %31, align 8, !tbaa !31
  %32 = getelementptr inbounds nuw i8, ptr %14, i64 44
  %33 = load i8, ptr %32, align 4, !tbaa !15
  store i8 %33, ptr %8, align 4, !tbaa !15
  %34 = getelementptr inbounds nuw i8, ptr %14, i64 48
  %35 = load ptr, ptr %34, align 8, !tbaa !32
  %36 = tail call ptr @OBJ_dup(ptr noundef %35) #6
  %37 = getelementptr inbounds nuw i8, ptr %3, i64 48
  store ptr %36, ptr %37, align 8, !tbaa !32
  %38 = icmp eq ptr %36, null
  br i1 %38, label %pkey_dh_init.exit.thread, label %39

39:                                               ; preds = %5
  %40 = getelementptr inbounds nuw i8, ptr %14, i64 56
  %41 = load ptr, ptr %40, align 8, !tbaa !33
  %42 = getelementptr inbounds nuw i8, ptr %3, i64 56
  store ptr %41, ptr %42, align 8, !tbaa !33
  %43 = getelementptr inbounds nuw i8, ptr %14, i64 64
  %44 = load ptr, ptr %43, align 8, !tbaa !34
  %.not34 = icmp eq ptr %44, null
  br i1 %.not34, label %54, label %45

45:                                               ; preds = %39
  %46 = getelementptr inbounds nuw i8, ptr %14, i64 72
  %47 = load i64, ptr %46, align 8, !tbaa !35
  %48 = tail call noalias ptr @CRYPTO_memdup(ptr noundef nonnull %44, i64 noundef %47, ptr noundef nonnull @.str, i32 noundef 106) #6
  %49 = getelementptr inbounds nuw i8, ptr %3, i64 64
  store ptr %48, ptr %49, align 8, !tbaa !34
  %50 = icmp eq ptr %48, null
  br i1 %50, label %pkey_dh_init.exit.thread, label %51

51:                                               ; preds = %45
  %52 = load i64, ptr %46, align 8, !tbaa !35
  %53 = getelementptr inbounds nuw i8, ptr %3, i64 72
  store i64 %52, ptr %53, align 8, !tbaa !35
  br label %54

54:                                               ; preds = %51, %39
  %55 = getelementptr inbounds nuw i8, ptr %14, i64 80
  %56 = load i64, ptr %55, align 8, !tbaa !36
  %57 = getelementptr inbounds nuw i8, ptr %3, i64 80
  store i64 %56, ptr %57, align 8, !tbaa !36
  br label %pkey_dh_init.exit.thread

pkey_dh_init.exit.thread:                         ; preds = %2, %45, %5, %54
  %.0 = phi i32 [ 1, %54 ], [ 0, %5 ], [ 0, %45 ], [ 0, %2 ]
  ret i32 %.0
}